target datalayout = "e-m:e-p270:32:32-p271:32:32-p272:64:64-i64:64-i128:128-f80:128-n8:16:32:64-S128"
target triple = "x86_64-pc-linux-gnu"

%class.QMessageLogger = type { %class.QMessageLogContext }
%class.QMessageLogContext = type { i32, i32, ptr, ptr, ptr }

@_ZN19GLExtensionsManager15glewInitializedE = global i8 0, align 1
@glewExperimental = external global i8, align 1
@.str = private unnamed_addr constant [31 x i8] c"GLEW initialization failed: %s\00", align 1
@.str.1 = private unnamed_addr constant [8 x i8] c"default\00", align 1

; Function Attrs: mustprogress nounwind uwtable
define linkonce_odr void @_ZN18QMessageLogContextC2EPKciS1_S1_(ptr noundef nonnull align 8 dereferenceable(32) %0, ptr noundef %1, i32 noundef %2, ptr noundef %3, ptr noundef %4) unnamed_addr #0 comdat align 2 {
  %6 = alloca ptr, align 8
  %7 = alloca ptr, align 8
  %8 = alloca i32, align 4
  %9 = alloca ptr, align 8
  %10 = alloca ptr, align 8
  store ptr %0, ptr %6, align 8
  store ptr %1, ptr %7, align 8
  store i32 %2, ptr %8, align 4
  store ptr %3, ptr %9, align 8
  store ptr %4, ptr %10, align 8
  %11 = load ptr, ptr %6, align 8
  %12 = getelementptr inbounds %class.QMessageLogContext, ptr %11, i32 0, i32 0
  store i32 2, ptr %12, align 8
  %13 = getelementptr inbounds %class.QMessageLogContext, ptr %11, i32 0, i32 1
  %14 = load i32, ptr %8, align 4
  store i32 %14, ptr %13, align 4
  %15 = getelementptr inbounds %class.QMessageLogContext, ptr %11, i32 0, i32 2
  %16 = load ptr, ptr %7, align 8
  store ptr %16, ptr %15, align 8
  %17 = getelementptr inbounds %class.QMessageLogContext, ptr %11, i32 0, i32 3
  %18 = load ptr, ptr %9, align 8
  store ptr %18, ptr %17, align 8
  %19 = getelementptr inbounds %class.QMessageLogContext, ptr %11, i32 0, i32 4
  %20 = load ptr, ptr %10, align 8
  store ptr %20, ptr %19, align 8
  ret void
}

; Function Attrs: mustprogress nounwind uwtable
define linkonce_odr void @_ZN14QMessageLoggerC2EPKciS1_(ptr noundef nonnull align 8 dereferenceable(32) %0, ptr noundef %1, i32 noundef %2, ptr noundef %3) unnamed_addr #0 comdat align 2 {
  %5 = alloca ptr, align 8
  %6 = alloca ptr, align 8
  %7 = alloca i32, align 4
  %8 = alloca ptr, align 8
  store ptr %0, ptr %5, align 8
  store ptr %1, ptr %6, align 8
  store i32 %2, ptr %7, align 4
  store ptr %3, ptr %8, align 8
  %9 = load ptr, ptr %5, align 8
  %10 = getelementptr inbounds %class.QMessageLogger, ptr %9, i32 0, i32 0
  %11 = load ptr, ptr %6, align 8
  %12 = load i32, ptr %7, align 4
  %13 = load ptr, ptr %8, align 8
  call void @_ZN18QMessageLogContextC2EPKciS1_S1_(ptr noundef nonnull align 8 dereferenceable(32) %10, ptr noundef %11, i32 noundef %12, ptr noundef %13, ptr noundef @.str.1) #9
  ret void
}

; Function Attrs: mustprogress uwtable
define noundef zeroext i1 @_ZN19GLExtensionsManager34initializeGLextensions_notThrowingEv() #1 align 2 {
  %1 = alloca i32, align 4
  %2 = alloca %class.QMessageLogger, align 8
  %3 = load i8, ptr @_ZN19GLExtensionsManager15glewInitializedE, align 1
  %4 = trunc i8 %3 to i1
  br i1 %4, label %17, label %5

5:                                                ; preds = %0
  store i8 1, ptr @glewExperimental, align 1
  %6 = call i32 @glewInit()
  store i32 %6, ptr %1, align 4
  %7 = load i32, ptr %1, align 4
  %8 = icmp eq i32 %7, 0
  br i1 %8, label %12, label %9

9:                                                ; preds = %5
  %10 = load i32, ptr %1, align 4
  %11 = icmp eq i32 %10, 4
  br i1 %11, label %12, label %13

12:                                               ; preds = %9, %5
  store i8 1, ptr @_ZN19GLExtensionsManager15glewInitializedE, align 1
  br label %16

13:                                               ; preds = %9
  call void @_ZN14QMessageLoggerC2EPKciS1_(ptr noundef nonnull align 8 dereferenceable(32) %2, ptr noundef null, i32 noundef 0, ptr noundef null)
  %14 = load i32, ptr %1, align 4
  %15 = call ptr @glewGetErrorString(i32 noundef %14)
  call void (ptr, ptr, ...) @_ZNK14QMessageLogger7warningEPKcz(ptr noundef nonnull align 8 dereferenceable(32) %2, ptr noundef @.str, ptr noundef %15) #8
  br label %16

16:                                               ; preds = %13, %12
  br label %17

17:                                               ; preds = %16, %0
  %18 = load i8, ptr @_ZN19GLExtensionsManager15glewInitializedE, align 1
  %19 = trunc i8 %18 to i1
  ret i1 %19
}