; Function Attrs: mustprogress uwtable
define noundef zeroext i1 @_ZN19GLExtensionsManager34initializeGLextensions_notThrowingEv() local_unnamed_addr #1 align 2 {
  %1 = alloca %class.QMessageLogger, align 8
  %2 = load i8, ptr @_ZN19GLExtensionsManager15glewInitializedE, align 1
  %3 = and i8 %2, 1
  %.not = icmp eq i8 %3, 0
  br i1 %.not, label %4, label %12

4:                                                ; preds = %0
  store i8 1, ptr @glewExperimental, align 1
  %5 = tail call i32 @glewInit()
  %6 = and i32 %5, -5
  %or.cond = icmp eq i32 %6, 0
  br i1 %or.cond, label %7, label %8

7:                                                ; preds = %4
  store i8 1, ptr @_ZN19GLExtensionsManager15glewInitializedE, align 1
  br label %12

8:                                                ; preds = %4
  store i32 2, ptr %1, align 8
  %9 = getelementptr inbounds i8, ptr %1, i64 4
  %10 = getelementptr inbounds i8, ptr %1, i64 24
  call void @llvm.memset.p0.i64(ptr noundef nonnull align 4 dereferenceable(20) %9, i8 0, i64 20, i1 false)
  store ptr @.str.1, ptr %10, align 8
  %11 = tail call ptr @glewGetErrorString(i32 noundef %5)
  call void (ptr, ptr, ...) @_ZNK14QMessageLogger7warningEPKcz(ptr noundef nonnull align 8 dereferenceable(32) %1, ptr noundef nonnull @.str, ptr noundef %11) #9
  %.pre = load i8, ptr @_ZN19GLExtensionsManager15glewInitializedE, align 1
  br label %12

12:                                               ; preds = %7, %8, %0
  %13 = phi i8 [ 1, %7 ], [ %.pre, %8 ], [ %2, %0 ]
  %14 = and i8 %13, 1
  %15 = icmp ne i8 %14, 0
  ret i1 %15
}